target datalayout = "e-m:e-p270:32:32-p271:32:32-p272:64:64-i64:64-i128:128-f80:128-n8:16:32:64-S128"
target triple = "x86_64-pc-linux-gnu"

%class.DragDropToolBar = type <{ %class.QToolBar, %class.QPoint, i32, [4 x i8] }>
%class.QToolBar = type { %class.QWidget }
%class.QWidget = type { %class.QObject, %class.QPaintDevice.base, ptr }
%class.QObject = type { ptr, %class.QScopedPointer }
%class.QScopedPointer = type { ptr }
%class.QPaintDevice.base = type <{ ptr, i16 }>
%class.QPoint = type { i32, i32 }
%class.QVariant = type { %"struct.QVariant::Private" }
%"struct.QVariant::Private" = type { %union.anon, i64 }
%union.anon = type { ptr, [16 x i8] }
%class.QEvent = type { ptr, i16, i8, i8, i8, i8, i16 }
%class.QChildEvent = type { %class.QEvent, ptr }
%class.QObjectData = type { ptr, ptr, ptr, %class.QList.15, i32, i32, ptr, %class.QBindingStorage }
%class.QList.15 = type { %struct.QArrayDataPointer.18 }
%struct.QArrayDataPointer.18 = type { ptr, ptr, i64 }
%class.QBindingStorage = type { ptr, ptr }
%class.QMetaType = type { ptr }

@.str.1 = private unnamed_addr constant [26 x i8] c"drag_drop_toolbar_action_\00", align 1

; Function Attrs: mustprogress nounwind uwtable
define linkonce_odr void @_ZN9QMetaTypeC2EPKN9QtPrivate18QMetaTypeInterfaceE(ptr noundef nonnull align 8 dereferenceable(8) %0, ptr noundef %1) unnamed_addr #2 comdat align 2 {
  %3 = alloca ptr, align 8
  %4 = alloca ptr, align 8
  store ptr %0, ptr %3, align 8
  store ptr %1, ptr %4, align 8
  %5 = load ptr, ptr %3, align 8
  %6 = getelementptr inbounds %class.QMetaType, ptr %5, i32 0, i32 0
  %7 = load ptr, ptr %4, align 8
  store ptr %7, ptr %6, align 8
  ret void
}

; Function Attrs: mustprogress nounwind uwtable
define linkonce_odr noundef ptr @_ZN9QtPrivate25qMetaTypeInterfaceForTypeIiEEPKNS_18QMetaTypeInterfaceEv() #2 comdat {
  ret ptr @_ZN9QtPrivate25QMetaTypeInterfaceWrapperIiE8metaTypeE
}

; Function Attrs: mustprogress uwtable
define linkonce_odr ptr @_ZN9QMetaType8fromTypeIiEES_v() #0 comdat align 2 {
  %1 = alloca %class.QMetaType, align 8
  %2 = call noundef ptr @_ZN9QtPrivate25qMetaTypeInterfaceForTypeIiEEPKNS_18QMetaTypeInterfaceEv()
  call void @_ZN9QMetaTypeC2EPKN9QtPrivate18QMetaTypeInterfaceE(ptr noundef nonnull align 8 dereferenceable(8) %1, ptr noundef %2)
  %3 = getelementptr inbounds %class.QMetaType, ptr %1, i32 0, i32 0
  %4 = load ptr, ptr %3, align 8
  ret ptr %4
}

; Function Attrs: mustprogress nounwind uwtable
define linkonce_odr noundef ptr @_ZNK14QScopedPointerI11QObjectData21QScopedPointerDeleterIS0_EEptEv(ptr noundef nonnull align 8 dereferenceable(8) %0) #2 comdat align 2 {
  %2 = alloca ptr, align 8
  store ptr %0, ptr %2, align 8
  %3 = load ptr, ptr %2, align 8
  %4 = getelementptr inbounds %class.QScopedPointer, ptr %3, i32 0, i32 0
  %5 = load ptr, ptr %4, align 8
  ret ptr %5
}

; Function Attrs: mustprogress uwtable
define linkonce_odr void @_ZN8QVariant9fromValueIiEENSt9enable_ifIXsr3stdE23is_copy_constructible_vIT_EES_E4typeERKS2_(ptr dead_on_unwind noalias writable sret(%class.QVariant) align 8 %0, ptr noundef nonnull align 4 dereferenceable(4) %1) #0 comdat align 2 {
  %3 = alloca ptr, align 8
  %4 = alloca ptr, align 8
  %5 = alloca %class.QMetaType, align 8
  store ptr %0, ptr %3, align 8
  store ptr %1, ptr %4, align 8
  %6 = call ptr @_ZN9QMetaType8fromTypeIiEES_v()
  %7 = getelementptr inbounds %class.QMetaType, ptr %5, i32 0, i32 0
  store ptr %6, ptr %7, align 8
  %8 = load ptr, ptr %4, align 8
  %9 = getelementptr inbounds %class.QMetaType, ptr %5, i32 0, i32 0
  %10 = load ptr, ptr %9, align 8
  call void @_ZN8QVariantC1E9QMetaTypePKv(ptr noundef nonnull align 8 dereferenceable(32) %0, ptr %10, ptr noundef %8)
  ret void
}

; Function Attrs: mustprogress nounwind uwtable
define linkonce_odr noundef zeroext i1 @_ZNK7QObject12isWidgetTypeEv(ptr noundef nonnull align 8 dereferenceable(16) %0) #2 comdat align 2 {
  %2 = alloca ptr, align 8
  store ptr %0, ptr %2, align 8
  %3 = load ptr, ptr %2, align 8
  %4 = getelementptr inbounds %class.QObject, ptr %3, i32 0, i32 1
  %5 = call noundef ptr @_ZNK14QScopedPointerI11QObjectData21QScopedPointerDeleterIS0_EEptEv(ptr noundef nonnull align 8 dereferenceable(8) %4) #12
  %6 = getelementptr inbounds %class.QObjectData, ptr %5, i32 0, i32 4
  %7 = load i32, ptr %6, align 8
  %8 = and i32 %7, 1
  %9 = icmp ne i32 %8, 0
  ret i1 %9
}

; Function Attrs: mustprogress nounwind uwtable
define linkonce_odr noundef ptr @_ZNK11QChildEvent5childEv(ptr noundef nonnull align 8 dereferenceable(24) %0) #2 comdat align 2 {
  %2 = alloca ptr, align 8
  store ptr %0, ptr %2, align 8
  %3 = load ptr, ptr %2, align 8
  %4 = getelementptr inbounds %class.QChildEvent, ptr %3, i32 0, i32 1
  %5 = load ptr, ptr %4, align 8
  ret ptr %5
}

; Function Attrs: mustprogress nounwind uwtable
define linkonce_odr noundef i32 @_ZNK6QEvent4typeEv(ptr noundef nonnull align 8 dereferenceable(16) %0) #2 comdat align 2 {
  %2 = alloca ptr, align 8
  store ptr %0, ptr %2, align 8
  %3 = load ptr, ptr %2, align 8
  %4 = getelementptr inbounds %class.QEvent, ptr %3, i32 0, i32 1
  %5 = load i16, ptr %4, align 8
  %6 = zext i16 %5 to i32
  ret i32 %6
}

; Function Attrs: mustprogress uwtable
define void @_ZN15DragDropToolBar10childEventEP11QChildEvent(ptr noundef nonnull align 8 dereferenceable(52) %0, ptr noundef %1) unnamed_addr #0 align 2 personality ptr @__gxx_personality_v0 {
  %3 = alloca ptr, align 8
  %4 = alloca ptr, align 8
  %5 = alloca %class.QVariant, align 8
  %6 = alloca ptr, align 8
  %7 = alloca i32, align 4
  store ptr %0, ptr %3, align 8
  store ptr %1, ptr %4, align 8
  %8 = load ptr, ptr %3, align 8
  %9 = load ptr, ptr %4, align 8
  %10 = call noundef i32 @_ZNK6QEvent4typeEv(ptr noundef nonnull align 8 dereferenceable(16) %9)
  %11 = icmp eq i32 %10, 68
  br i1 %11, label %12, label %38

12:                                               ; preds = %2
  %13 = load ptr, ptr %4, align 8
  %14 = call noundef ptr @_ZNK11QChildEvent5childEv(ptr noundef nonnull align 8 dereferenceable(24) %13)
  %15 = call noundef zeroext i1 @_ZNK7QObject12isWidgetTypeEv(ptr noundef nonnull align 8 dereferenceable(16) %14)
  br i1 %15, label %16, label %37

16:                                               ; preds = %12
  %17 = getelementptr inbounds %class.DragDropToolBar, ptr %8, i32 0, i32 2
  %18 = load i32, ptr %17, align 8
  %19 = icmp slt i32 %18, 0
  br i1 %19, label %20, label %22

20:                                               ; preds = %16
  %21 = getelementptr inbounds %class.DragDropToolBar, ptr %8, i32 0, i32 2
  store i32 0, ptr %21, align 8
  br label %22

22:                                               ; preds = %20, %16
  %23 = load ptr, ptr %4, align 8
  %24 = call noundef ptr @_ZNK11QChildEvent5childEv(ptr noundef nonnull align 8 dereferenceable(24) %23)
  call void @_ZN7QObject18installEventFilterEPS_(ptr noundef nonnull align 8 dereferenceable(16) %24, ptr noundef %8)
  %25 = load ptr, ptr %4, align 8
  %26 = call noundef ptr @_ZNK11QChildEvent5childEv(ptr noundef nonnull align 8 dereferenceable(24) %25)
  %27 = getelementptr inbounds %class.DragDropToolBar, ptr %8, i32 0, i32 2
  call void @_ZN8QVariant9fromValueIiEENSt9enable_ifIXsr3stdE23is_copy_constructible_vIT_EES_E4typeERKS2_(ptr dead_on_unwind writable sret(%class.QVariant) align 8 %5, ptr noundef nonnull align 4 dereferenceable(4) %27)
  %28 = invoke noundef zeroext i1 @_ZN7QObject11setPropertyEPKcRK8QVariant(ptr noundef nonnull align 8 dereferenceable(16) %26, ptr noundef @.str.1, ptr noundef nonnull align 8 dereferenceable(32) %5)
          to label %29 unwind label %33

29:                                               ; preds = %22
  call void @_ZN8QVariantD1Ev(ptr noundef nonnull align 8 dereferenceable(32) %5) #12
  %30 = getelementptr inbounds %class.DragDropToolBar, ptr %8, i32 0, i32 2
  %31 = load i32, ptr %30, align 8
  %32 = add i32 %31, 1
  store i32 %32, ptr %30, align 8
  br label %37

33:                                               ; preds = %22
  %34 = landingpad { ptr, i32 }
          cleanup
  %35 = extractvalue { ptr, i32 } %34, 0
  store ptr %35, ptr %6, align 8
  %36 = extractvalue { ptr, i32 } %34, 1
  store i32 %36, ptr %7, align 4
  call void @_ZN8QVariantD1Ev(ptr noundef nonnull align 8 dereferenceable(32) %5) #12
  br label %60

37:                                               ; preds = %29, %12
  br label %59

38:                                               ; preds = %2
  %39 = load ptr, ptr %4, align 8
  %40 = call noundef i32 @_ZNK6QEvent4typeEv(ptr noundef nonnull align 8 dereferenceable(16) %39)
  %41 = icmp eq i32 %40, 71
  br i1 %41, label %42, label %46

42:                                               ; preds = %38
  %43 = getelementptr inbounds %class.DragDropToolBar, ptr %8, i32 0, i32 2
  %44 = load i32, ptr %43, align 8
  %45 = add i32 %44, -1
  store i32 %45, ptr %43, align 8
  br label %58

46:                                               ; preds = %38
  %47 = load ptr, ptr %4, align 8
  %48 = call noundef i32 @_ZNK6QEvent4typeEv(ptr noundef nonnull align 8 dereferenceable(16) %47)
  %49 = icmp eq i32 %48, 69
  br i1 %49, label %50, label %57

50:                                               ; preds = %46
  %51 = load ptr, ptr %4, align 8
  %52 = call noundef ptr @_ZNK11QChildEvent5childEv(ptr noundef nonnull align 8 dereferenceable(24) %51)
  %53 = call noundef zeroext i1 @_ZNK7QObject12isWidgetTypeEv(ptr noundef nonnull align 8 dereferenceable(16) %52)
  br i1 %53, label %54, label %56

54:                                               ; preds = %50
  %55 = getelementptr inbounds %class.DragDropToolBar, ptr %8, i32 0, i32 2
  store i32 0, ptr %55, align 8
  br label %56

56:                                               ; preds = %54, %50
  br label %57

57:                                               ; preds = %56, %46
  br label %58

58:                                               ; preds = %57, %42
  br label %59

59:                                               ; preds = %58, %37
  ret void

60:                                               ; preds = %33
  %61 = load ptr, ptr %6, align 8
  %62 = load i32, ptr %7, align 4
  %63 = insertvalue { ptr, i32 } poison, ptr %61, 0
  %64 = insertvalue { ptr, i32 } %63, i32 %62, 1
  resume { ptr, i32 } %64
}