; Function Attrs: mustprogress uwtable
define void @_ZN15DragDropToolBar10childEventEP11QChildEvent(ptr noundef nonnull align 8 dereferenceable(52) %0, ptr nocapture noundef readonly %1) unnamed_addr #0 align 2 personality ptr @__gxx_personality_v0 {
  %3 = alloca %class.QVariant, align 8
  %4 = getelementptr inbounds i8, ptr %1, i64 8
  %5 = load i16, ptr %4, align 8
  switch i16 %5, label %42 [
    i16 68, label %6
    i16 71, label %28
    i16 69, label %32
  ]

6:                                                ; preds = %2
  %7 = getelementptr inbounds i8, ptr %1, i64 16
  %8 = load ptr, ptr %7, align 8
  %9 = getelementptr inbounds i8, ptr %8, i64 8
  %10 = load ptr, ptr %9, align 8
  %11 = getelementptr inbounds i8, ptr %10, i64 48
  %12 = load i32, ptr %11, align 8
  %13 = and i32 %12, 1
  %.not9 = icmp eq i32 %13, 0
  br i1 %.not9, label %42, label %14

14:                                               ; preds = %6
  %15 = getelementptr inbounds i8, ptr %0, i64 48
  %16 = load i32, ptr %15, align 8
  %17 = icmp slt i32 %16, 0
  br i1 %17, label %18, label %19

18:                                               ; preds = %14
  store i32 0, ptr %15, align 8
  %.pre = load ptr, ptr %7, align 8
  br label %19

19:                                               ; preds = %18, %14
  %20 = phi ptr [ %.pre, %18 ], [ %8, %14 ]
  tail call void @_ZN7QObject18installEventFilterEPS_(ptr noundef nonnull align 8 dereferenceable(16) %20, ptr noundef nonnull %0)
  %21 = load ptr, ptr %7, align 8
  call void @_ZN8QVariantC1E9QMetaTypePKv(ptr noundef nonnull align 8 dereferenceable(32) %3, ptr nonnull @_ZN9QtPrivate25QMetaTypeInterfaceWrapperIiE8metaTypeE, ptr noundef nonnull %15)
  %22 = invoke noundef zeroext i1 @_ZN7QObject11setPropertyEPKcRK8QVariant(ptr noundef nonnull align 8 dereferenceable(16) %21, ptr noundef nonnull @.str.1, ptr noundef nonnull align 8 dereferenceable(32) %3)
          to label %23 unwind label %26

23:                                               ; preds = %19
  call void @_ZN8QVariantD1Ev(ptr noundef nonnull align 8 dereferenceable(32) %3) #15
  %24 = load i32, ptr %15, align 8
  %25 = add i32 %24, 1
  store i32 %25, ptr %15, align 8
  br label %42

26:                                               ; preds = %19
  %27 = landingpad { ptr, i32 }
          cleanup
  call void @_ZN8QVariantD1Ev(ptr noundef nonnull align 8 dereferenceable(32) %3) #15
  resume { ptr, i32 } %27

28:                                               ; preds = %2
  %29 = getelementptr inbounds i8, ptr %0, i64 48
  %30 = load i32, ptr %29, align 8
  %31 = add i32 %30, -1
  store i32 %31, ptr %29, align 8
  br label %42

32:                                               ; preds = %2
  %33 = getelementptr inbounds i8, ptr %1, i64 16
  %34 = load ptr, ptr %33, align 8
  %35 = getelementptr inbounds i8, ptr %34, i64 8
  %36 = load ptr, ptr %35, align 8
  %37 = getelementptr inbounds i8, ptr %36, i64 48
  %38 = load i32, ptr %37, align 8
  %39 = and i32 %38, 1
  %.not = icmp eq i32 %39, 0
  br i1 %.not, label %42, label %40

40:                                               ; preds = %32
  %41 = getelementptr inbounds i8, ptr %0, i64 48
  store i32 0, ptr %41, align 8
  br label %42

42:                                               ; preds = %2, %28, %32, %40, %6, %23
  ret void
}